; Function Attrs: mustprogress nounwind uwtable
define hidden void @_ZN13ReplacedNodes5cloneEv(ptr nocapture noundef nonnull align 8 dereferenceable(8) %0) local_unnamed_addr #0 align 2 {
  %2 = load ptr, ptr %0, align 8
  %.not = icmp eq ptr %2, null
  br i1 %.not, label %38, label %3

3:                                                ; preds = %1
  %4 = tail call noundef ptr @_Z23resource_allocate_bytesmN17AllocFailStrategy13AllocFailEnumE(i64 noundef 24, i32 noundef 0) #8
  %5 = tail call noundef ptr @_ZN30GrowableArrayResourceAllocator8allocateEii(i32 noundef 2, i32 noundef 16) #8
  store i32 0, ptr %4, align 4
  %6 = getelementptr inbounds i8, ptr %4, i64 4
  store i32 2, ptr %6, align 4
  %7 = getelementptr inbounds i8, ptr %4, i64 8
  store ptr %5, ptr %7, align 8
  tail call void @llvm.memset.p0.i64(ptr noundef nonnull align 8 dereferenceable(32) %5, i8 0, i64 32, i1 false)
  %8 = getelementptr inbounds i8, ptr %4, i64 16
  store i64 0, ptr %8, align 8
  %9 = load ptr, ptr %0, align 8
  %10 = load i32, ptr %9, align 4
  %11 = icmp sgt i32 %10, 0
  br i1 %11, label %.lr.ph.i, label %_ZN26GrowableArrayWithAllocatorIN13ReplacedNodes12ReplacedNodeE13GrowableArrayIS1_EE9appendAllEPK17GrowableArrayViewIS1_E.exit

.lr.ph.i:                                         ; preds = %3
  %12 = getelementptr inbounds i8, ptr %9, i64 8
  br label %13

13:                                               ; preds = %_ZN26GrowableArrayWithAllocatorIN13ReplacedNodes12ReplacedNodeE13GrowableArrayIS1_EE11at_put_growEiRKS1_S6_.exit.i, %.lr.ph.i
  %indvars.iv.i = phi i64 [ 0, %.lr.ph.i ], [ %indvars.iv.next.i, %_ZN26GrowableArrayWithAllocatorIN13ReplacedNodes12ReplacedNodeE13GrowableArrayIS1_EE11at_put_growEiRKS1_S6_.exit.i ]
  %14 = load i32, ptr %4, align 8
  %15 = load ptr, ptr %12, align 8
  %16 = getelementptr inbounds %"class.ReplacedNodes::ReplacedNode", ptr %15, i64 %indvars.iv.i
  %17 = load i32, ptr %6, align 4
  %.not12.i.i = icmp sgt i32 %17, %14
  %.pre.i = add nsw i32 %14, 1
  br i1 %.not12.i.i, label %_ZN26GrowableArrayWithAllocatorIN13ReplacedNodes12ReplacedNodeE13GrowableArrayIS1_EE11at_put_growEiRKS1_S6_.exit.i, label %18

18:                                               ; preds = %13
  %19 = icmp sgt i32 %14, -1
  %20 = xor i32 %14, -2147483648
  %21 = and i32 %20, %.pre.i
  %22 = icmp eq i32 %21, 0
  %23 = and i1 %19, %22
  %24 = tail call range(i32 0, 33) i32 @llvm.ctlz.i32(i32 %.pre.i, i1 true)
  %25 = sub nuw nsw i32 32, %24
  %26 = shl nuw i32 1, %25
  %.0.i.i.i.i.i = select i1 %23, i32 %.pre.i, i32 %26
  tail call void @_ZN26GrowableArrayWithAllocatorIN13ReplacedNodes12ReplacedNodeE13GrowableArrayIS1_EE9expand_toEi(ptr noundef nonnull align 8 dereferenceable(16) %4, i32 noundef %.0.i.i.i.i.i)
  %.pre.i.i = load i32, ptr %4, align 8
  %27 = icmp slt i32 %.pre.i.i, %14
  br i1 %27, label %.lr.ph.i.i, label %_ZN26GrowableArrayWithAllocatorIN13ReplacedNodes12ReplacedNodeE13GrowableArrayIS1_EE11at_put_growEiRKS1_S6_.exit.i

.lr.ph.i.i:                                       ; preds = %18
  %28 = sext i32 %.pre.i.i to i64
  %wide.trip.count.i.i = sext i32 %14 to i64
  br label %29

29:                                               ; preds = %29, %.lr.ph.i.i
  %indvars.iv.i.i = phi i64 [ %28, %.lr.ph.i.i ], [ %indvars.iv.next.i.i, %29 ]
  %30 = load ptr, ptr %7, align 8
  %31 = getelementptr inbounds %"class.ReplacedNodes::ReplacedNode", ptr %30, i64 %indvars.iv.i.i
  tail call void @llvm.memset.p0.i64(ptr noundef nonnull align 8 dereferenceable(16) %31, i8 0, i64 16, i1 false)
  %indvars.iv.next.i.i = add nsw i64 %indvars.iv.i.i, 1
  %exitcond.not.i.i = icmp eq i64 %indvars.iv.next.i.i, %wide.trip.count.i.i
  br i1 %exitcond.not.i.i, label %_ZN26GrowableArrayWithAllocatorIN13ReplacedNodes12ReplacedNodeE13GrowableArrayIS1_EE11at_put_growEiRKS1_S6_.exit.i, label %29, !llvm.loop !10

_ZN26GrowableArrayWithAllocatorIN13ReplacedNodes12ReplacedNodeE13GrowableArrayIS1_EE11at_put_growEiRKS1_S6_.exit.i: ; preds = %29, %18, %13
  store i32 %.pre.i, ptr %4, align 8
  %32 = load ptr, ptr %7, align 8
  %33 = sext i32 %14 to i64
  %34 = getelementptr inbounds %"class.ReplacedNodes::ReplacedNode", ptr %32, i64 %33
  tail call void @llvm.memcpy.p0.p0.i64(ptr noundef nonnull align 8 dereferenceable(16) %34, ptr noundef nonnull align 8 dereferenceable(16) %16, i64 16, i1 false)
  %indvars.iv.next.i = add nuw nsw i64 %indvars.iv.i, 1
  %35 = load i32, ptr %9, align 4
  %36 = sext i32 %35 to i64
  %37 = icmp slt i64 %indvars.iv.next.i, %36
  br i1 %37, label %13, label %_ZN26GrowableArrayWithAllocatorIN13ReplacedNodes12ReplacedNodeE13GrowableArrayIS1_EE9appendAllEPK17GrowableArrayViewIS1_E.exit, !llvm.loop !11

_ZN26GrowableArrayWithAllocatorIN13ReplacedNodes12ReplacedNodeE13GrowableArrayIS1_EE9appendAllEPK17GrowableArrayViewIS1_E.exit: ; preds = %_ZN26GrowableArrayWithAllocatorIN13ReplacedNodes12ReplacedNodeE13GrowableArrayIS1_EE11at_put_growEiRKS1_S6_.exit.i, %3
  store ptr %4, ptr %0, align 8
  br label %38

38:                                               ; preds = %_ZN26GrowableArrayWithAllocatorIN13ReplacedNodes12ReplacedNodeE13GrowableArrayIS1_EE9appendAllEPK17GrowableArrayViewIS1_E.exit, %1
  ret void
}